target datalayout = "e-m:e-p270:32:32-p271:32:32-p272:64:64-i64:64-i128:128-f80:128-n8:16:32:64-S128"
target triple = "x86_64-pc-linux-gnu"

%struct.darktable_t = type { %struct.dt_codepath_t, i32, i32, ptr, ptr, ptr, ptr, ptr, ptr, ptr, ptr, ptr, ptr, ptr, ptr, ptr, ptr, ptr, ptr, ptr, ptr, ptr, ptr, ptr, ptr, ptr, ptr, ptr, ptr, ptr, [64 x %struct.dt_pthread_mutex_t], %struct.dt_pthread_mutex_t, %struct.dt_pthread_mutex_t, %struct.dt_pthread_mutex_t, %struct.dt_pthread_mutex_t, %struct.dt_pthread_mutex_t, ptr, ptr, ptr, ptr, ptr, ptr, ptr, ptr, ptr, ptr, ptr, ptr, ptr, %struct.dt_lua_state_t, ptr, double, ptr, i32, [47 x i32], i32, i32, ptr, ptr, %struct.dt_sys_resources_t, %struct.dt_backthumb_t, %struct.dt_gimp_t }
%struct.dt_codepath_t = type { i8, [3 x i8] }
%struct.dt_pthread_mutex_t = type { %union.pthread_mutex_t }
%union.pthread_mutex_t = type { %struct.__pthread_mutex_s }
%struct.__pthread_mutex_s = type { i32, i32, i32, i32, i32, i16, i16, %struct.__pthread_internal_list }
%struct.__pthread_internal_list = type { ptr, ptr }
%struct.dt_lua_state_t = type { i32 }
%struct.dt_sys_resources_t = type { i64, i64, ptr, ptr, i32 }
%struct.dt_backthumb_t = type { double, double, i32, i32, i32, i32 }
%struct.dt_gimp_t = type { i32, ptr, ptr, i32, i32 }
%struct.dt_iop_order_iccprofile_info_t = type { i32, [512 x i8], i32, [56 x i8], [4 x [4 x float]], [4 x [4 x float]], i32, [3 x ptr], [3 x ptr], [8 x i8], [3 x [3 x float]], [12 x i8], [3 x [3 x float]], i32, float, [36 x i8], [4 x [4 x float]], [4 x [4 x float]], [3 x [2 x float]], [2 x float], [32 x i8] }
%struct.dt_image_t = type { i32, i32, float, float, float, float, float, float, float, [64 x i8], [64 x i8], [128 x i8], [64 x i8], [64 x i8], [64 x i8], [64 x i8], i64, i32, %union.dt_image_correction_data_t, [64 x i8], [64 x i8], [64 x i8], [128 x i8], i32, [256 x i8], i32, i32, i32, i32, i32, i32, i32, i32, i32, i32, float, i32, i32, i32, i32, i32, i32, i64, i64, i64, i64, i32, [12 x i8], %struct.dt_iop_buffer_dsc_t, [9 x float], ptr, i32, i32, %struct.dt_image_raw_parameters_t, %struct.dt_image_geoloc_t, %struct._color_harmony_t, i16, [4 x i16], i32, i32, float, float, [4 x float], [4 x [3 x float]], [4 x float], ptr, ptr, i32, i32, [8 x i8] }
%union.dt_image_correction_data_t = type { %struct.anon.0 }
%struct.anon.0 = type { i32, float, [11 x float], [11 x float], [11 x float], [11 x float], [11 x float] }
%struct.dt_iop_buffer_dsc_t = type { i32, i32, i32, [6 x [6 x i8]], %struct.anon.3, [12 x i8], %struct.anon.4, [4 x float], i32, [12 x i8] }
%struct.anon.3 = type { i16, i16 }
%struct.anon.4 = type { i32, [12 x i8], [4 x float] }
%struct.dt_image_raw_parameters_t = type { i32 }
%struct.dt_image_geoloc_t = type { double, double, double }
%struct._color_harmony_t = type { i32, i32, i32 }
%struct.dt_dev_pixelpipe_t = type { %struct.dt_dev_pixelpipe_cache_t, i32, i64, ptr, i32, i32, float, i32, i32, [12 x i8], %struct.dt_iop_buffer_dsc_t, ptr, ptr, ptr, ptr, i32, i32, i32, i32, ptr, i64, i32, i32, float, float, float, i64, %struct.dt_pthread_mutex_t, %struct.dt_pthread_mutex_t, %struct.dt_pthread_mutex_t, i32, i32, i32, %struct.dt_dev_detail_mask_t, i32, i32, i32, i32, i32, i32, i32, i32, i32, i32, i32, i32, i32, i32, [8 x i8], %struct.dt_image_t, i32, ptr, i32, ptr, ptr, ptr, i32, ptr, i64, [8 x i8] }
%struct.dt_dev_pixelpipe_cache_t = type { i32, i64, i64, ptr, ptr, ptr, ptr, ptr, ptr, i64, i32, i64, i64, i32, i32, i32 }
%struct.dt_dev_detail_mask_t = type { %struct.dt_iop_roi_t, i64, ptr }
%struct.dt_iop_roi_t = type { i32, i32, i32, i32, float }

@darktable = external global %struct.darktable_t, align 8
@.str.3 = private unnamed_addr constant [1 x i8] zeroinitializer, align 1
@.str.5 = private unnamed_addr constant [78 x i8] c"[dt_ioppr_set_pipe_output_profile_info] profile `%s' in `%s' replaced by sRGB\00", align 1

; Function Attrs: inlinehint nounwind uwtable
define internal i32 @dt_is_valid_colormatrix(float noundef %0) #2 {
  %2 = alloca float, align 4
  store float %0, ptr %2, align 4, !tbaa !18
  %3 = load float, ptr %2, align 4, !tbaa !18
  %4 = call i1 @llvm.is.fpclass.f32(float %3, i32 504)
  %5 = zext i1 %4 to i32
  ret i32 %5
}

; Function Attrs: nounwind uwtable
define ptr @dt_ioppr_set_pipe_output_profile_info(ptr noundef %0, ptr noundef %1, i32 noundef %2, ptr noundef %3, i32 noundef %4) #0 {
  %6 = alloca ptr, align 8
  %7 = alloca ptr, align 8
  %8 = alloca i32, align 4
  %9 = alloca ptr, align 8
  %10 = alloca i32, align 4
  %11 = alloca ptr, align 8
  store ptr %0, ptr %6, align 8, !tbaa !26
  store ptr %1, ptr %7, align 8, !tbaa !127
  store i32 %2, ptr %8, align 4, !tbaa !11
  store ptr %3, ptr %9, align 8, !tbaa !28
  store i32 %4, ptr %10, align 4, !tbaa !11
  call void @llvm.lifetime.start.p0(i64 8, ptr %11) #10
  %12 = load ptr, ptr %6, align 8, !tbaa !26
  %13 = load i32, ptr %8, align 4, !tbaa !11
  %14 = load ptr, ptr %9, align 8, !tbaa !28
  %15 = load i32, ptr %10, align 4, !tbaa !11
  %16 = call ptr @dt_ioppr_add_profile_info_to_list(ptr noundef %12, i32 noundef %13, ptr noundef %14, i32 noundef %15)
  store ptr %16, ptr %11, align 8, !tbaa !6
  %17 = load ptr, ptr %11, align 8, !tbaa !6
  %18 = icmp eq ptr %17, null
  br i1 %18, label %35, label %19

19:                                               ; preds = %5
  %20 = load ptr, ptr %11, align 8, !tbaa !6
  %21 = getelementptr inbounds nuw %struct.dt_iop_order_iccprofile_info_t, ptr %20, i32 0, i32 4
  %22 = getelementptr inbounds [4 x [4 x float]], ptr %21, i64 0, i64 0
  %23 = getelementptr inbounds [4 x float], ptr %22, i64 0, i64 0
  %24 = load float, ptr %23, align 64, !tbaa !18
  %25 = call i32 @dt_is_valid_colormatrix(float noundef %24)
  %26 = icmp ne i32 %25, 0
  br i1 %26, label %27, label %35

27:                                               ; preds = %19
  %28 = load ptr, ptr %11, align 8, !tbaa !6
  %29 = getelementptr inbounds nuw %struct.dt_iop_order_iccprofile_info_t, ptr %28, i32 0, i32 5
  %30 = getelementptr inbounds [4 x [4 x float]], ptr %29, i64 0, i64 0
  %31 = getelementptr inbounds [4 x float], ptr %30, i64 0, i64 0
  %32 = load float, ptr %31, align 64, !tbaa !18
  %33 = call i32 @dt_is_valid_colormatrix(float noundef %32)
  %34 = icmp ne i32 %33, 0
  br i1 %34, label %59, label %35

35:                                               ; preds = %27, %19, %5
  %36 = load i32, ptr %8, align 4, !tbaa !11
  %37 = icmp ne i32 %36, 8
  br i1 %37, label %38, label %55

38:                                               ; preds = %35
  br label %39

39:                                               ; preds = %38
  %40 = load i32, ptr getelementptr inbounds nuw (%struct.darktable_t, ptr @darktable, i32 0, i32 2), align 8, !tbaa !103
  %41 = and i32 33554432, %40
  %42 = icmp ne i32 %41, 0
  br i1 %42, label %43, label %52

43:                                               ; preds = %39
  %44 = load i32, ptr getelementptr inbounds nuw (%struct.darktable_t, ptr @darktable, i32 0, i32 2), align 8, !tbaa !103
  %45 = xor i32 %44, -1
  %46 = and i32 0, %45
  %47 = icmp ne i32 %46, 0
  br i1 %47, label %52, label %48

48:                                               ; preds = %43
  %49 = load i32, ptr %8, align 4, !tbaa !11
  %50 = call ptr @dt_colorspaces_get_name(i32 noundef %49, ptr noundef null)
  %51 = load ptr, ptr %9, align 8, !tbaa !28
  call void (ptr, ...) @dt_print_ext(ptr noundef @.str.5, ptr noundef %50, ptr noundef %51)
  br label %52

52:                                               ; preds = %48, %43, %39
  br label %53

53:                                               ; preds = %52
  br label %54

54:                                               ; preds = %53
  br label %55

55:                                               ; preds = %54, %35
  %56 = load ptr, ptr %6, align 8, !tbaa !26
  %57 = load i32, ptr %10, align 4, !tbaa !11
  %58 = call ptr @dt_ioppr_add_profile_info_to_list(ptr noundef %56, i32 noundef 1, ptr noundef @.str.3, i32 noundef %57)
  store ptr %58, ptr %11, align 8, !tbaa !6
  br label %59

59:                                               ; preds = %55, %27
  %60 = load ptr, ptr %11, align 8, !tbaa !6
  %61 = load ptr, ptr %7, align 8, !tbaa !127
  %62 = getelementptr inbounds nuw %struct.dt_dev_pixelpipe_t, ptr %61, i32 0, i32 13
  store ptr %60, ptr %62, align 16, !tbaa !136
  %63 = load ptr, ptr %11, align 8, !tbaa !6
  call void @llvm.lifetime.end.p0(i64 8, ptr %11) #10
  ret ptr %63
}